
AX18ServoControl.elf:     file format elf32-avr

Sections:
Idx Name          Size      VMA       LMA       File off  Algn
  0 .text         000003f2  00000000  00000000  00000074  2**1
                  CONTENTS, ALLOC, LOAD, READONLY, CODE
  1 .bss          0000008a  00800100  00800100  00000466  2**0
                  ALLOC
  2 .comment      00000030  00000000  00000000  00000466  2**0
                  CONTENTS, READONLY
  3 .debug_aranges 00000100  00000000  00000000  00000496  2**0
                  CONTENTS, READONLY, DEBUGGING
  4 .debug_info   00000c18  00000000  00000000  00000596  2**0
                  CONTENTS, READONLY, DEBUGGING
  5 .debug_abbrev 000003ad  00000000  00000000  000011ae  2**0
                  CONTENTS, READONLY, DEBUGGING
  6 .debug_line   00000451  00000000  00000000  0000155b  2**0
                  CONTENTS, READONLY, DEBUGGING
  7 .debug_frame  000002ac  00000000  00000000  000019ac  2**2
                  CONTENTS, READONLY, DEBUGGING
  8 .debug_str    00000415  00000000  00000000  00001c58  2**0
                  CONTENTS, READONLY, DEBUGGING
  9 .debug_loc    00000952  00000000  00000000  0000206d  2**0
                  CONTENTS, READONLY, DEBUGGING
 10 .debug_ranges 00000100  00000000  00000000  000029bf  2**0
                  CONTENTS, READONLY, DEBUGGING

Disassembly of section .text:

00000000 <__vectors>:
   0:	0c 94 3e 00 	jmp	0x7c	; 0x7c <__ctors_end>
   4:	0c 94 50 00 	jmp	0xa0	; 0xa0 <__bad_interrupt>
   8:	0c 94 50 00 	jmp	0xa0	; 0xa0 <__bad_interrupt>
   c:	0c 94 50 00 	jmp	0xa0	; 0xa0 <__bad_interrupt>
  10:	0c 94 50 00 	jmp	0xa0	; 0xa0 <__bad_interrupt>
  14:	0c 94 50 00 	jmp	0xa0	; 0xa0 <__bad_interrupt>
  18:	0c 94 50 00 	jmp	0xa0	; 0xa0 <__bad_interrupt>
  1c:	0c 94 50 00 	jmp	0xa0	; 0xa0 <__bad_interrupt>
  20:	0c 94 50 00 	jmp	0xa0	; 0xa0 <__bad_interrupt>
  24:	0c 94 50 00 	jmp	0xa0	; 0xa0 <__bad_interrupt>
  28:	0c 94 50 00 	jmp	0xa0	; 0xa0 <__bad_interrupt>
  2c:	0c 94 50 00 	jmp	0xa0	; 0xa0 <__bad_interrupt>
  30:	0c 94 50 00 	jmp	0xa0	; 0xa0 <__bad_interrupt>
  34:	0c 94 50 00 	jmp	0xa0	; 0xa0 <__bad_interrupt>
  38:	0c 94 50 00 	jmp	0xa0	; 0xa0 <__bad_interrupt>
  3c:	0c 94 50 00 	jmp	0xa0	; 0xa0 <__bad_interrupt>
  40:	0c 94 50 00 	jmp	0xa0	; 0xa0 <__bad_interrupt>
  44:	0c 94 50 00 	jmp	0xa0	; 0xa0 <__bad_interrupt>
  48:	0c 94 50 00 	jmp	0xa0	; 0xa0 <__bad_interrupt>
  4c:	0c 94 50 00 	jmp	0xa0	; 0xa0 <__bad_interrupt>
  50:	0c 94 00 01 	jmp	0x200	; 0x200 <__vector_20>
  54:	0c 94 2e 01 	jmp	0x25c	; 0x25c <__vector_21>
  58:	0c 94 50 00 	jmp	0xa0	; 0xa0 <__bad_interrupt>
  5c:	0c 94 50 00 	jmp	0xa0	; 0xa0 <__bad_interrupt>
  60:	0c 94 50 00 	jmp	0xa0	; 0xa0 <__bad_interrupt>
  64:	0c 94 50 00 	jmp	0xa0	; 0xa0 <__bad_interrupt>
  68:	0c 94 50 00 	jmp	0xa0	; 0xa0 <__bad_interrupt>
  6c:	0c 94 50 00 	jmp	0xa0	; 0xa0 <__bad_interrupt>
  70:	0c 94 71 01 	jmp	0x2e2	; 0x2e2 <__vector_28>
  74:	0c 94 9f 01 	jmp	0x33e	; 0x33e <__vector_29>
  78:	0c 94 50 00 	jmp	0xa0	; 0xa0 <__bad_interrupt>

0000007c <__ctors_end>:
  7c:	11 24       	eor	r1, r1
  7e:	1f be       	out	0x3f, r1	; 63
  80:	cf ef       	ldi	r28, 0xFF	; 255
  82:	d0 e1       	ldi	r29, 0x10	; 16
  84:	de bf       	out	0x3e, r29	; 62
  86:	cd bf       	out	0x3d, r28	; 61

00000088 <__do_clear_bss>:
  88:	21 e0       	ldi	r18, 0x01	; 1
  8a:	a0 e0       	ldi	r26, 0x00	; 0
  8c:	b1 e0       	ldi	r27, 0x01	; 1
  8e:	01 c0       	rjmp	.+2      	; 0x92 <.do_clear_bss_start>

00000090 <.do_clear_bss_loop>:
  90:	1d 92       	st	X+, r1

00000092 <.do_clear_bss_start>:
  92:	aa 38       	cpi	r26, 0x8A	; 138
  94:	b2 07       	cpc	r27, r18
  96:	e1 f7       	brne	.-8      	; 0x90 <.do_clear_bss_loop>
  98:	0e 94 52 00 	call	0xa4	; 0xa4 <main>
  9c:	0c 94 f7 01 	jmp	0x3ee	; 0x3ee <_exit>

000000a0 <__bad_interrupt>:
  a0:	0c 94 00 00 	jmp	0	; 0x0 <__vectors>

000000a4 <main>:
#include "uart.h"


int main(void)
{
	uart_init(UART_BAUD_SELECT(UART_BAUD_RATE,F_CPU));
  a4:	80 e0       	ldi	r24, 0x00	; 0
  a6:	90 e0       	ldi	r25, 0x00	; 0
  a8:	0e 94 58 01 	call	0x2b0	; 0x2b0 <uart_init>
	uart1_init(UART_BAUD_SELECT(UART_BAUD_RATE,F_CPU));
  ac:	80 e0       	ldi	r24, 0x00	; 0
  ae:	90 e0       	ldi	r25, 0x00	; 0
  b0:	0e 94 c9 01 	call	0x392	; 0x392 <uart1_init>
	DDRB = 0xFF;
  b4:	8f ef       	ldi	r24, 0xFF	; 255
  b6:	84 b9       	out	0x04, r24	; 4

	sei();
  b8:	78 94       	sei
	AX18Speed(BROADCAST_ID, 150);
  ba:	46 e9       	ldi	r20, 0x96	; 150
  bc:	50 e0       	ldi	r21, 0x00	; 0
  be:	60 e0       	ldi	r22, 0x00	; 0
  c0:	70 e0       	ldi	r23, 0x00	; 0
  c2:	8e ef       	ldi	r24, 0xFE	; 254
  c4:	0e 94 ed 00 	call	0x1da	; 0x1da <AX18Speed>
	while(1) //infinite loop
	{
		
		
		AX18Position(BROADCAST_ID, 0);
  c8:	40 e0       	ldi	r20, 0x00	; 0
  ca:	50 e0       	ldi	r21, 0x00	; 0
  cc:	ba 01       	movw	r22, r20
  ce:	8e ef       	ldi	r24, 0xFE	; 254
  d0:	0e 94 d9 00 	call	0x1b2	; 0x1b2 <AX18Position>
	#else
		//round up by default
		__ticks_dc = (uint32_t)(ceil(fabs(__tmp)));
	#endif

	__builtin_avr_delay_cycles(__ticks_dc);
  d4:	2a ea       	ldi	r18, 0xAA	; 170
  d6:	36 ee       	ldi	r19, 0xE6	; 230
  d8:	86 e9       	ldi	r24, 0x96	; 150
  da:	91 e0       	ldi	r25, 0x01	; 1
  dc:	21 50       	subi	r18, 0x01	; 1
  de:	30 40       	sbci	r19, 0x00	; 0
  e0:	80 40       	sbci	r24, 0x00	; 0
  e2:	90 40       	sbci	r25, 0x00	; 0
  e4:	d9 f7       	brne	.-10     	; 0xdc <main+0x38>
  e6:	00 00       	nop
		_delay_ms(10000);
		AX18Position(BROADCAST_ID, 1023);
  e8:	4f ef       	ldi	r20, 0xFF	; 255
  ea:	53 e0       	ldi	r21, 0x03	; 3
  ec:	60 e0       	ldi	r22, 0x00	; 0
  ee:	70 e0       	ldi	r23, 0x00	; 0
  f0:	8e ef       	ldi	r24, 0xFE	; 254
  f2:	0e 94 d9 00 	call	0x1b2	; 0x1b2 <AX18Position>
  f6:	2a ea       	ldi	r18, 0xAA	; 170
  f8:	36 ee       	ldi	r19, 0xE6	; 230
  fa:	86 e9       	ldi	r24, 0x96	; 150
  fc:	91 e0       	ldi	r25, 0x01	; 1
  fe:	21 50       	subi	r18, 0x01	; 1
 100:	30 40       	sbci	r19, 0x00	; 0
 102:	80 40       	sbci	r24, 0x00	; 0
 104:	90 40       	sbci	r25, 0x00	; 0
 106:	d9 f7       	brne	.-10     	; 0xfe <main+0x5a>
 108:	00 00       	nop
 10a:	de cf       	rjmp	.-68     	; 0xc8 <main+0x24>

0000010c <generateChecksum>:
 * @param  length  Length of data
 * @return         Checksum
 */
unsigned char generateChecksum(unsigned char id, unsigned char address, unsigned char *data, unsigned length) {

	unsigned char checksum = id + (length + 3) + AX_WRITE_DATA + address;
 10c:	6a 5f       	subi	r22, 0xFA	; 250
 10e:	86 0f       	add	r24, r22
 110:	82 0f       	add	r24, r18
	for(unsigned char i = 0; i < length; i++) {
 112:	21 15       	cp	r18, r1
 114:	31 05       	cpc	r19, r1
 116:	69 f0       	breq	.+26     	; 0x132 <generateChecksum+0x26>
 118:	e0 e0       	ldi	r30, 0x00	; 0
 11a:	f0 e0       	ldi	r31, 0x00	; 0
 11c:	90 e0       	ldi	r25, 0x00	; 0
		checksum += data[i];
 11e:	e4 0f       	add	r30, r20
 120:	f5 1f       	adc	r31, r21
 122:	60 81       	ld	r22, Z
 124:	86 0f       	add	r24, r22
 * @return         Checksum
 */
unsigned char generateChecksum(unsigned char id, unsigned char address, unsigned char *data, unsigned length) {

	unsigned char checksum = id + (length + 3) + AX_WRITE_DATA + address;
	for(unsigned char i = 0; i < length; i++) {
 126:	9f 5f       	subi	r25, 0xFF	; 255
 128:	e9 2f       	mov	r30, r25
 12a:	f0 e0       	ldi	r31, 0x00	; 0
 12c:	e2 17       	cp	r30, r18
 12e:	f3 07       	cpc	r31, r19
 130:	b0 f3       	brcs	.-20     	; 0x11e <generateChecksum+0x12>
		checksum += data[i];
	}
	return ~checksum;
}
 132:	80 95       	com	r24
 134:	08 95       	ret

00000136 <AX18FWrite>:
 * @param id      Servo identifier
 * @param address Servo memory write address
 * @param data    Data to write to memory
 * @param length  Length of data
 */
void AX18FWrite(unsigned char id, unsigned char address, unsigned char *data, unsigned char length) {
 136:	cf 92       	push	r12
 138:	df 92       	push	r13
 13a:	ef 92       	push	r14
 13c:	ff 92       	push	r15
 13e:	0f 93       	push	r16
 140:	1f 93       	push	r17
 142:	cf 93       	push	r28
 144:	df 93       	push	r29
 146:	f8 2e       	mov	r15, r24
 148:	e6 2e       	mov	r14, r22
 14a:	c4 2e       	mov	r12, r20
 14c:	d5 2e       	mov	r13, r21
 14e:	02 2f       	mov	r16, r18

	uart1_putc(AX_START);
 150:	8f ef       	ldi	r24, 0xFF	; 255
 152:	0e 94 e2 01 	call	0x3c4	; 0x3c4 <uart1_putc>
	uart1_putc(AX_START);
 156:	8f ef       	ldi	r24, 0xFF	; 255
 158:	0e 94 e2 01 	call	0x3c4	; 0x3c4 <uart1_putc>
	uart1_putc(id);
 15c:	8f 2d       	mov	r24, r15
 15e:	0e 94 e2 01 	call	0x3c4	; 0x3c4 <uart1_putc>
	uart1_putc(length + 3);
 162:	83 e0       	ldi	r24, 0x03	; 3
 164:	80 0f       	add	r24, r16
 166:	0e 94 e2 01 	call	0x3c4	; 0x3c4 <uart1_putc>
	uart1_putc(AX_WRITE_DATA);
 16a:	83 e0       	ldi	r24, 0x03	; 3
 16c:	0e 94 e2 01 	call	0x3c4	; 0x3c4 <uart1_putc>
	uart1_putc(address);
 170:	8e 2d       	mov	r24, r14
 172:	0e 94 e2 01 	call	0x3c4	; 0x3c4 <uart1_putc>

	for(unsigned char i = 0; i < length; i++) {
 176:	00 23       	and	r16, r16
 178:	49 f0       	breq	.+18     	; 0x18c <AX18FWrite+0x56>
 17a:	cc 2d       	mov	r28, r12
 17c:	dd 2d       	mov	r29, r13
 17e:	10 e0       	ldi	r17, 0x00	; 0
		uart1_putc(data[i]);
 180:	89 91       	ld	r24, Y+
 182:	0e 94 e2 01 	call	0x3c4	; 0x3c4 <uart1_putc>
	uart1_putc(id);
	uart1_putc(length + 3);
	uart1_putc(AX_WRITE_DATA);
	uart1_putc(address);

	for(unsigned char i = 0; i < length; i++) {
 186:	1f 5f       	subi	r17, 0xFF	; 255
 188:	10 13       	cpse	r17, r16
 18a:	fa cf       	rjmp	.-12     	; 0x180 <AX18FWrite+0x4a>
		uart1_putc(data[i]);
	}

	uart1_putc(generateChecksum(id, address, data, length));
 18c:	20 2f       	mov	r18, r16
 18e:	30 e0       	ldi	r19, 0x00	; 0
 190:	4c 2d       	mov	r20, r12
 192:	5d 2d       	mov	r21, r13
 194:	6e 2d       	mov	r22, r14
 196:	8f 2d       	mov	r24, r15
 198:	0e 94 86 00 	call	0x10c	; 0x10c <generateChecksum>
 19c:	0e 94 e2 01 	call	0x3c4	; 0x3c4 <uart1_putc>

}
 1a0:	df 91       	pop	r29
 1a2:	cf 91       	pop	r28
 1a4:	1f 91       	pop	r17
 1a6:	0f 91       	pop	r16
 1a8:	ff 90       	pop	r15
 1aa:	ef 90       	pop	r14
 1ac:	df 90       	pop	r13
 1ae:	cf 90       	pop	r12
 1b0:	08 95       	ret

000001b2 <AX18Position>:
/**
 * Set goal position of servo. Range of position is 0 - 1023.
 * @param id  Servo identifier
 * @param pos Goal position
 */
void AX18Position(unsigned char id, unsigned long pos) {
 1b2:	cf 93       	push	r28
 1b4:	df 93       	push	r29
 1b6:	00 d0       	rcall	.+0      	; 0x1b8 <AX18Position+0x6>
 1b8:	cd b7       	in	r28, 0x3d	; 61
 1ba:	de b7       	in	r29, 0x3e	; 62
 * Returns lower byte of unsigned 16 bit value
 * @param  data 16 bit unsigned value
 * @return      lower byte
 */
unsigned char unsigned16ToUnsigned8Lower(unsigned long data) {
	return data & 0xFF;
 1bc:	49 83       	std	Y+1, r20	; 0x01
 * Returns higher byte of unsigned 16 bit value
 * @param  data 16 bit unsigned value
 * @return      higher byte
 */
unsigned char unsigned16ToUnsigned8Higher(unsigned long data) {
	return (data >> 8) & 0xFF; 
 1be:	5a 83       	std	Y+2, r21	; 0x02
void AX18Position(unsigned char id, unsigned long pos) {

	unsigned char buffer[2] = {
		unsigned16ToUnsigned8Lower(pos),
		unsigned16ToUnsigned8Higher(pos)};
	AX18FWrite(BROADCAST_ID, AX_GOAL_POSITION_L, buffer, 2);
 1c0:	22 e0       	ldi	r18, 0x02	; 2
 1c2:	ae 01       	movw	r20, r28
 1c4:	4f 5f       	subi	r20, 0xFF	; 255
 1c6:	5f 4f       	sbci	r21, 0xFF	; 255
 1c8:	6e e1       	ldi	r22, 0x1E	; 30
 1ca:	8e ef       	ldi	r24, 0xFE	; 254
 1cc:	0e 94 9b 00 	call	0x136	; 0x136 <AX18FWrite>
}
 1d0:	0f 90       	pop	r0
 1d2:	0f 90       	pop	r0
 1d4:	df 91       	pop	r29
 1d6:	cf 91       	pop	r28
 1d8:	08 95       	ret

000001da <AX18Speed>:
/**
 * Set speed of servo. This speed will be used in both JOIN and WHEEL mode.
 * @param id    Servo identifier
 * @param speed Speed
 */
void AX18Speed(unsigned char id, unsigned long speed) {
 1da:	cf 93       	push	r28
 1dc:	df 93       	push	r29
 1de:	00 d0       	rcall	.+0      	; 0x1e0 <AX18Speed+0x6>
 1e0:	cd b7       	in	r28, 0x3d	; 61
 1e2:	de b7       	in	r29, 0x3e	; 62
 * Returns lower byte of unsigned 16 bit value
 * @param  data 16 bit unsigned value
 * @return      lower byte
 */
unsigned char unsigned16ToUnsigned8Lower(unsigned long data) {
	return data & 0xFF;
 1e4:	49 83       	std	Y+1, r20	; 0x01
 * Returns higher byte of unsigned 16 bit value
 * @param  data 16 bit unsigned value
 * @return      higher byte
 */
unsigned char unsigned16ToUnsigned8Higher(unsigned long data) {
	return (data >> 8) & 0xFF; 
 1e6:	5a 83       	std	Y+2, r21	; 0x02
void AX18Speed(unsigned char id, unsigned long speed) {
	unsigned char buffer[2] = {
		unsigned16ToUnsigned8Lower(speed), 
		unsigned16ToUnsigned8Higher(speed)};

	AX18FWrite(id, AX_GOAL_SPEED_L, buffer, 2);
 1e8:	22 e0       	ldi	r18, 0x02	; 2
 1ea:	ae 01       	movw	r20, r28
 1ec:	4f 5f       	subi	r20, 0xFF	; 255
 1ee:	5f 4f       	sbci	r21, 0xFF	; 255
 1f0:	60 e2       	ldi	r22, 0x20	; 32
 1f2:	0e 94 9b 00 	call	0x136	; 0x136 <AX18FWrite>
}
 1f6:	0f 90       	pop	r0
 1f8:	0f 90       	pop	r0
 1fa:	df 91       	pop	r29
 1fc:	cf 91       	pop	r28
 1fe:	08 95       	ret

00000200 <__vector_20>:
ISR (UART0_RECEIVE_INTERRUPT)	
/*************************************************************************
Function: UART Receive Complete interrupt
Purpose:  called when the UART has received a character
**************************************************************************/
{
 200:	1f 92       	push	r1
 202:	0f 92       	push	r0
 204:	0f b6       	in	r0, 0x3f	; 63
 206:	0f 92       	push	r0
 208:	11 24       	eor	r1, r1
 20a:	2f 93       	push	r18
 20c:	8f 93       	push	r24
 20e:	9f 93       	push	r25
 210:	ef 93       	push	r30
 212:	ff 93       	push	r31
    unsigned char usr;
    unsigned char lastRxError;
 
 
    /* read UART status register and UART data register */
    usr  = UART0_STATUS;
 214:	80 91 c0 00 	lds	r24, 0x00C0
    data = UART0_DATA;
 218:	20 91 c6 00 	lds	r18, 0x00C6
    
    /* get FEn (Frame Error) DORn (Data OverRun) UPEn (USART Parity Error) bits */
#if defined(FE) && defined(DOR) && defined(UPE)
    lastRxError = usr & (_BV(FE)|_BV(DOR)|_BV(UPE) );
#elif defined(FE0) && defined(DOR0) && defined(UPE0)
    lastRxError = usr & (_BV(FE0)|_BV(DOR0)|_BV(UPE0) );
 21c:	8c 71       	andi	r24, 0x1C	; 28
#elif defined(FE) && defined(DOR)
    lastRxError = usr & (_BV(FE)|_BV(DOR) );
#endif

    /* calculate buffer index */ 
    tmphead = ( UART_RxHead + 1) & UART_RX_BUFFER_MASK;
 21e:	e0 91 47 01 	lds	r30, 0x0147
 222:	ef 5f       	subi	r30, 0xFF	; 255
 224:	ef 71       	andi	r30, 0x1F	; 31
    
    if ( tmphead == UART_RxTail ) {
 226:	90 91 46 01 	lds	r25, 0x0146
 22a:	e9 17       	cp	r30, r25
 22c:	39 f0       	breq	.+14     	; 0x23c <__vector_20+0x3c>
        /* error: receive buffer overflow */
        lastRxError = UART_BUFFER_OVERFLOW >> 8;
    }else{
        /* store new index */
        UART_RxHead = tmphead;
 22e:	e0 93 47 01 	sts	0x0147, r30
        /* store received data in buffer */
        UART_RxBuf[tmphead] = data;
 232:	f0 e0       	ldi	r31, 0x00	; 0
 234:	e6 5b       	subi	r30, 0xB6	; 182
 236:	fe 4f       	sbci	r31, 0xFE	; 254
 238:	20 83       	st	Z, r18
 23a:	01 c0       	rjmp	.+2      	; 0x23e <__vector_20+0x3e>
    /* calculate buffer index */ 
    tmphead = ( UART_RxHead + 1) & UART_RX_BUFFER_MASK;
    
    if ( tmphead == UART_RxTail ) {
        /* error: receive buffer overflow */
        lastRxError = UART_BUFFER_OVERFLOW >> 8;
 23c:	82 e0       	ldi	r24, 0x02	; 2
        /* store new index */
        UART_RxHead = tmphead;
        /* store received data in buffer */
        UART_RxBuf[tmphead] = data;
    }
    UART_LastRxError |= lastRxError;   
 23e:	90 91 45 01 	lds	r25, 0x0145
 242:	89 2b       	or	r24, r25
 244:	80 93 45 01 	sts	0x0145, r24
}
 248:	ff 91       	pop	r31
 24a:	ef 91       	pop	r30
 24c:	9f 91       	pop	r25
 24e:	8f 91       	pop	r24
 250:	2f 91       	pop	r18
 252:	0f 90       	pop	r0
 254:	0f be       	out	0x3f, r0	; 63
 256:	0f 90       	pop	r0
 258:	1f 90       	pop	r1
 25a:	18 95       	reti

0000025c <__vector_21>:
ISR (UART0_TRANSMIT_INTERRUPT)
/*************************************************************************
Function: UART Data Register Empty interrupt
Purpose:  called when the UART is ready to transmit the next byte
**************************************************************************/
{
 25c:	1f 92       	push	r1
 25e:	0f 92       	push	r0
 260:	0f b6       	in	r0, 0x3f	; 63
 262:	0f 92       	push	r0
 264:	11 24       	eor	r1, r1
 266:	8f 93       	push	r24
 268:	9f 93       	push	r25
 26a:	ef 93       	push	r30
 26c:	ff 93       	push	r31
    unsigned char tmptail;

    
    if ( UART_TxHead != UART_TxTail) {
 26e:	90 91 49 01 	lds	r25, 0x0149
 272:	80 91 48 01 	lds	r24, 0x0148
 276:	98 17       	cp	r25, r24
 278:	69 f0       	breq	.+26     	; 0x294 <__vector_21+0x38>
        /* calculate and store new buffer index */
        tmptail = (UART_TxTail + 1) & UART_TX_BUFFER_MASK;
 27a:	e0 91 48 01 	lds	r30, 0x0148
 27e:	ef 5f       	subi	r30, 0xFF	; 255
 280:	ef 71       	andi	r30, 0x1F	; 31
        UART_TxTail = tmptail;
 282:	e0 93 48 01 	sts	0x0148, r30
        /* get one byte from buffer and write it to UART */
        UART0_DATA = UART_TxBuf[tmptail];  /* start transmission */
 286:	f0 e0       	ldi	r31, 0x00	; 0
 288:	e6 59       	subi	r30, 0x96	; 150
 28a:	fe 4f       	sbci	r31, 0xFE	; 254
 28c:	80 81       	ld	r24, Z
 28e:	80 93 c6 00 	sts	0x00C6, r24
 292:	05 c0       	rjmp	.+10     	; 0x29e <__vector_21+0x42>
    }else{
        /* tx buffer empty, disable UDRE interrupt */
        UART0_CONTROL &= ~_BV(UART0_UDRIE);
 294:	e1 ec       	ldi	r30, 0xC1	; 193
 296:	f0 e0       	ldi	r31, 0x00	; 0
 298:	80 81       	ld	r24, Z
 29a:	8f 7d       	andi	r24, 0xDF	; 223
 29c:	80 83       	st	Z, r24
    }
}
 29e:	ff 91       	pop	r31
 2a0:	ef 91       	pop	r30
 2a2:	9f 91       	pop	r25
 2a4:	8f 91       	pop	r24
 2a6:	0f 90       	pop	r0
 2a8:	0f be       	out	0x3f, r0	; 63
 2aa:	0f 90       	pop	r0
 2ac:	1f 90       	pop	r1
 2ae:	18 95       	reti

000002b0 <uart_init>:
Input:    baudrate using macro UART_BAUD_SELECT()
Returns:  none
**************************************************************************/
void uart_init(unsigned int baudrate)
{
    UART_TxHead = 0;
 2b0:	10 92 49 01 	sts	0x0149, r1
    UART_TxTail = 0;
 2b4:	10 92 48 01 	sts	0x0148, r1
    UART_RxHead = 0;
 2b8:	10 92 47 01 	sts	0x0147, r1
    UART_RxTail = 0;
 2bc:	10 92 46 01 	sts	0x0146, r1
#endif
#endif
#endif

    /* Set baud rate */
    if ( baudrate & 0x8000 )
 2c0:	99 23       	and	r25, r25
 2c2:	1c f4       	brge	.+6      	; 0x2ca <uart_init+0x1a>
    {
        #if UART0_BIT_U2X
        UART0_STATUS = (1<<UART0_BIT_U2X);  //Enable 2x speed 
 2c4:	22 e0       	ldi	r18, 0x02	; 2
 2c6:	20 93 c0 00 	sts	0x00C0, r18
        #endif
    } 
    #if defined(UART0_UBRRH)
    UART0_UBRRH = (unsigned char)((baudrate>>8)&0x80) ;
 2ca:	90 78       	andi	r25, 0x80	; 128
 2cc:	90 93 c5 00 	sts	0x00C5, r25
    #endif    
    UART0_UBRRL = (unsigned char) (baudrate&0x00FF);
 2d0:	80 93 c4 00 	sts	0x00C4, r24
      
    /* Enable USART receiver and transmitter and receive complete interrupt */
    UART0_CONTROL = _BV(UART0_BIT_RXCIE)|(1<<UART0_BIT_RXEN)|(1<<UART0_BIT_TXEN);
 2d4:	88 e9       	ldi	r24, 0x98	; 152
 2d6:	80 93 c1 00 	sts	0x00C1, r24
    /* Set frame format: asynchronous, 8data, no parity, 1stop bit */
    #ifdef UART0_CONTROLC
    #ifdef UART0_BIT_URSEL
    UART0_CONTROLC = (1<<UART0_BIT_URSEL)|(1<<UART0_BIT_UCSZ1)|(1<<UART0_BIT_UCSZ0);
    #else
    UART0_CONTROLC = (1<<UART0_BIT_UCSZ1)|(1<<UART0_BIT_UCSZ0);
 2da:	86 e0       	ldi	r24, 0x06	; 6
 2dc:	80 93 c2 00 	sts	0x00C2, r24
 2e0:	08 95       	ret

000002e2 <__vector_28>:
ISR(UART1_RECEIVE_INTERRUPT)
/*************************************************************************
Function: UART1 Receive Complete interrupt
Purpose:  called when the UART1 has received a character
**************************************************************************/
{
 2e2:	1f 92       	push	r1
 2e4:	0f 92       	push	r0
 2e6:	0f b6       	in	r0, 0x3f	; 63
 2e8:	0f 92       	push	r0
 2ea:	11 24       	eor	r1, r1
 2ec:	2f 93       	push	r18
 2ee:	8f 93       	push	r24
 2f0:	9f 93       	push	r25
 2f2:	ef 93       	push	r30
 2f4:	ff 93       	push	r31
    unsigned char usr;
    unsigned char lastRxError;
 
 
    /* read UART status register and UART data register */ 
    usr  = UART1_STATUS;
 2f6:	80 91 c8 00 	lds	r24, 0x00C8
    data = UART1_DATA;
 2fa:	20 91 ce 00 	lds	r18, 0x00CE
    
    /* get FEn (Frame Error) DORn (Data OverRun) UPEn (USART Parity Error) bits */
    lastRxError = usr & (_BV(FE1)|_BV(DOR1)|_BV(UPE1) );
 2fe:	8c 71       	andi	r24, 0x1C	; 28
            
    /* calculate buffer index */ 
    tmphead = ( UART1_RxHead + 1) & UART_RX_BUFFER_MASK;
 300:	e0 91 02 01 	lds	r30, 0x0102
 304:	ef 5f       	subi	r30, 0xFF	; 255
 306:	ef 71       	andi	r30, 0x1F	; 31
    
    if ( tmphead == UART1_RxTail ) {
 308:	90 91 01 01 	lds	r25, 0x0101
 30c:	e9 17       	cp	r30, r25
 30e:	39 f0       	breq	.+14     	; 0x31e <__vector_28+0x3c>
        /* error: receive buffer overflow */
        lastRxError = UART_BUFFER_OVERFLOW >> 8;
    }else{
        /* store new index */
        UART1_RxHead = tmphead;
 310:	e0 93 02 01 	sts	0x0102, r30
        /* store received data in buffer */
        UART1_RxBuf[tmphead] = data;
 314:	f0 e0       	ldi	r31, 0x00	; 0
 316:	eb 5f       	subi	r30, 0xFB	; 251
 318:	fe 4f       	sbci	r31, 0xFE	; 254
 31a:	20 83       	st	Z, r18
 31c:	01 c0       	rjmp	.+2      	; 0x320 <__vector_28+0x3e>
    /* calculate buffer index */ 
    tmphead = ( UART1_RxHead + 1) & UART_RX_BUFFER_MASK;
    
    if ( tmphead == UART1_RxTail ) {
        /* error: receive buffer overflow */
        lastRxError = UART_BUFFER_OVERFLOW >> 8;
 31e:	82 e0       	ldi	r24, 0x02	; 2
        /* store new index */
        UART1_RxHead = tmphead;
        /* store received data in buffer */
        UART1_RxBuf[tmphead] = data;
    }
    UART1_LastRxError |= lastRxError;   
 320:	90 91 00 01 	lds	r25, 0x0100
 324:	89 2b       	or	r24, r25
 326:	80 93 00 01 	sts	0x0100, r24
}
 32a:	ff 91       	pop	r31
 32c:	ef 91       	pop	r30
 32e:	9f 91       	pop	r25
 330:	8f 91       	pop	r24
 332:	2f 91       	pop	r18
 334:	0f 90       	pop	r0
 336:	0f be       	out	0x3f, r0	; 63
 338:	0f 90       	pop	r0
 33a:	1f 90       	pop	r1
 33c:	18 95       	reti

0000033e <__vector_29>:
ISR(UART1_TRANSMIT_INTERRUPT)
/*************************************************************************
Function: UART1 Data Register Empty interrupt
Purpose:  called when the UART1 is ready to transmit the next byte
**************************************************************************/
{
 33e:	1f 92       	push	r1
 340:	0f 92       	push	r0
 342:	0f b6       	in	r0, 0x3f	; 63
 344:	0f 92       	push	r0
 346:	11 24       	eor	r1, r1
 348:	8f 93       	push	r24
 34a:	9f 93       	push	r25
 34c:	ef 93       	push	r30
 34e:	ff 93       	push	r31
    unsigned char tmptail;

    
    if ( UART1_TxHead != UART1_TxTail) {
 350:	90 91 04 01 	lds	r25, 0x0104
 354:	80 91 03 01 	lds	r24, 0x0103
 358:	98 17       	cp	r25, r24
 35a:	69 f0       	breq	.+26     	; 0x376 <__vector_29+0x38>
        /* calculate and store new buffer index */
        tmptail = (UART1_TxTail + 1) & UART_TX_BUFFER_MASK;
 35c:	e0 91 03 01 	lds	r30, 0x0103
 360:	ef 5f       	subi	r30, 0xFF	; 255
 362:	ef 71       	andi	r30, 0x1F	; 31
        UART1_TxTail = tmptail;
 364:	e0 93 03 01 	sts	0x0103, r30
        /* get one byte from buffer and write it to UART */
        UART1_DATA = UART1_TxBuf[tmptail];  /* start transmission */
 368:	f0 e0       	ldi	r31, 0x00	; 0
 36a:	eb 5d       	subi	r30, 0xDB	; 219
 36c:	fe 4f       	sbci	r31, 0xFE	; 254
 36e:	80 81       	ld	r24, Z
 370:	80 93 ce 00 	sts	0x00CE, r24
 374:	05 c0       	rjmp	.+10     	; 0x380 <__vector_29+0x42>
    }else{
        /* tx buffer empty, disable UDRE interrupt */
        UART1_CONTROL &= ~_BV(UART1_UDRIE);
 376:	e9 ec       	ldi	r30, 0xC9	; 201
 378:	f0 e0       	ldi	r31, 0x00	; 0
 37a:	80 81       	ld	r24, Z
 37c:	8f 7d       	andi	r24, 0xDF	; 223
 37e:	80 83       	st	Z, r24
    }
}
 380:	ff 91       	pop	r31
 382:	ef 91       	pop	r30
 384:	9f 91       	pop	r25
 386:	8f 91       	pop	r24
 388:	0f 90       	pop	r0
 38a:	0f be       	out	0x3f, r0	; 63
 38c:	0f 90       	pop	r0
 38e:	1f 90       	pop	r1
 390:	18 95       	reti

00000392 <uart1_init>:
Input:    baudrate using macro UART_BAUD_SELECT()
Returns:  none
**************************************************************************/
void uart1_init(unsigned int baudrate)
{
    UART1_TxHead = 0;
 392:	10 92 04 01 	sts	0x0104, r1
    UART1_TxTail = 0;
 396:	10 92 03 01 	sts	0x0103, r1
    UART1_RxHead = 0;
 39a:	10 92 02 01 	sts	0x0102, r1
    UART1_RxTail = 0;
 39e:	10 92 01 01 	sts	0x0101, r1
#endif
#endif
#endif

    /* Set baud rate */
    if ( baudrate & 0x8000 ) 
 3a2:	99 23       	and	r25, r25
 3a4:	1c f4       	brge	.+6      	; 0x3ac <uart1_init+0x1a>
    {
        #if UART1_BIT_U2X
    	UART1_STATUS = (1<<UART1_BIT_U2X);  //Enable 2x speed 
 3a6:	22 e0       	ldi	r18, 0x02	; 2
 3a8:	20 93 c8 00 	sts	0x00C8, r18
        #endif
    }
    UART1_UBRRH = (unsigned char)((baudrate>>8)&0x80) ;
 3ac:	90 78       	andi	r25, 0x80	; 128
 3ae:	90 93 cd 00 	sts	0x00CD, r25
    UART1_UBRRL = (unsigned char) baudrate;
 3b2:	80 93 cc 00 	sts	0x00CC, r24
        
    /* Enable USART receiver and transmitter and receive complete interrupt */
    UART1_CONTROL = _BV(UART1_BIT_RXCIE)|(1<<UART1_BIT_RXEN)|(1<<UART1_BIT_TXEN);    
 3b6:	88 e9       	ldi	r24, 0x98	; 152
 3b8:	80 93 c9 00 	sts	0x00C9, r24
    
    /* Set frame format: asynchronous, 8data, no parity, 1stop bit */   
    #ifdef UART1_BIT_URSEL
    UART1_CONTROLC = (1<<UART1_BIT_URSEL)|(1<<UART1_BIT_UCSZ1)|(1<<UART1_BIT_UCSZ0);
    #else
    UART1_CONTROLC = (1<<UART1_BIT_UCSZ1)|(1<<UART1_BIT_UCSZ0);
 3bc:	86 e0       	ldi	r24, 0x06	; 6
 3be:	80 93 ca 00 	sts	0x00CA, r24
 3c2:	08 95       	ret

000003c4 <uart1_putc>:
void uart1_putc(unsigned char data)
{
    unsigned char tmphead;

    
    tmphead  = (UART1_TxHead + 1) & UART_TX_BUFFER_MASK;
 3c4:	20 91 04 01 	lds	r18, 0x0104
 3c8:	2f 5f       	subi	r18, 0xFF	; 255
 3ca:	2f 71       	andi	r18, 0x1F	; 31
    
    while ( tmphead == UART1_TxTail ){
 3cc:	90 91 03 01 	lds	r25, 0x0103
 3d0:	29 17       	cp	r18, r25
 3d2:	e1 f3       	breq	.-8      	; 0x3cc <uart1_putc+0x8>
        ;/* wait for free space in buffer */
    }
    
    UART1_TxBuf[tmphead] = data;
 3d4:	e2 2f       	mov	r30, r18
 3d6:	f0 e0       	ldi	r31, 0x00	; 0
 3d8:	eb 5d       	subi	r30, 0xDB	; 219
 3da:	fe 4f       	sbci	r31, 0xFE	; 254
 3dc:	80 83       	st	Z, r24
    UART1_TxHead = tmphead;
 3de:	20 93 04 01 	sts	0x0104, r18

    /* enable UDRE interrupt */
    UART1_CONTROL    |= _BV(UART1_UDRIE);
 3e2:	e9 ec       	ldi	r30, 0xC9	; 201
 3e4:	f0 e0       	ldi	r31, 0x00	; 0
 3e6:	80 81       	ld	r24, Z
 3e8:	80 62       	ori	r24, 0x20	; 32
 3ea:	80 83       	st	Z, r24
 3ec:	08 95       	ret

000003ee <_exit>:
 3ee:	f8 94       	cli

000003f0 <__stop_program>:
 3f0:	ff cf       	rjmp	.-2      	; 0x3f0 <__stop_program>
